; Function Attrs: mustprogress nofree norecurse nosync nounwind willreturn memory(argmem: read) uwtable
define hidden noundef range(i32 -1, 65536) i32 @_ZNK11ConstMethod24method_parameters_lengthEv(ptr nocapture noundef nonnull readonly align 8 dereferenceable(52) %0) local_unnamed_addr #1 align 2 {
  %2 = getelementptr inbounds i8, ptr %0, i64 28
  %3 = load i32, ptr %2, align 4
  %4 = and i32 %3, 32
  %.not = icmp eq i32 %4, 0
  br i1 %.not, label %24, label %5

5:                                                ; preds = %1
  %6 = and i32 %3, 16
  %.not.i = icmp eq i32 %6, 0
  %7 = lshr i32 %3, 7
  %.lobit.i1.i = and i32 %7, 1
  %8 = lshr i32 %3, 8
  %9 = and i32 %8, 1
  %.1.i2.i = add nuw nsw i32 %.lobit.i1.i, %9
  %10 = lshr i32 %3, 9
  %11 = and i32 %10, 1
  %.2.i3.i = add nuw nsw i32 %.1.i2.i, %11
  %12 = lshr i32 %3, 10
  %13 = and i32 %12, 1
  %.3.i4.i = add nuw nsw i32 %.2.i3.i, %13
  %14 = getelementptr inbounds i8, ptr %0, i64 24
  %15 = load i32, ptr %14, align 8
  %16 = sext i32 %15 to i64
  %17 = getelementptr inbounds i64, ptr %0, i64 %16
  %18 = zext nneg i32 %.3.i4.i to i64
  %19 = sub nsw i64 0, %18
  %20 = getelementptr inbounds ptr, ptr %17, i64 %19
  %..i = select i1 %.not.i, i64 -2, i64 -4
  %21 = getelementptr inbounds i8, ptr %20, i64 %..i
  %22 = load i16, ptr %21, align 2
  %23 = zext i16 %22 to i32
  br label %24

24:                                               ; preds = %1, %5
  %25 = phi i32 [ %23, %5 ], [ -1, %1 ]
  ret i32 %25
}